target datalayout = "e-m:e-p270:32:32-p271:32:32-p272:64:64-i64:64-i128:128-f80:128-n8:16:32:64-S128"
target triple = "x86_64-pc-linux-gnu"

%class.Node = type <{ ptr, ptr, ptr, i32, i32, i32, i32, i32, i32, i32, [4 x i8] }>

; Function Attrs: mustprogress nounwind uwtable
define linkonce_odr hidden noundef zeroext i1 @_ZNK4Node5is_IfEv(ptr noundef nonnull align 8 dereferenceable(52) %0) #1 comdat align 2 {
  %2 = alloca ptr, align 8
  store ptr %0, ptr %2, align 8
  %3 = load ptr, ptr %2, align 8
  %4 = getelementptr inbounds %class.Node, ptr %3, i32 0, i32 8
  %5 = load i32, ptr %4, align 4
  %6 = and i32 %5, 31
  %7 = icmp eq i32 %6, 21
  ret i1 %7
}

; Function Attrs: mustprogress nounwind uwtable
define linkonce_odr hidden noundef ptr @_ZNK4Node8fast_outEPPS_(ptr noundef nonnull align 8 dereferenceable(52) %0, ptr noundef %1) #1 comdat align 2 {
  %3 = alloca ptr, align 8
  %4 = alloca ptr, align 8
  store ptr %0, ptr %3, align 8
  store ptr %1, ptr %4, align 8
  %5 = load ptr, ptr %4, align 8
  %6 = load ptr, ptr %5, align 8
  ret ptr %6
}

; Function Attrs: mustprogress nounwind uwtable
define linkonce_odr hidden noundef ptr @_ZNK4Node9fast_outsERPPS_(ptr noundef nonnull align 8 dereferenceable(52) %0, ptr noundef nonnull align 8 dereferenceable(8) %1) #1 comdat align 2 {
  %3 = alloca ptr, align 8
  %4 = alloca ptr, align 8
  %5 = alloca ptr, align 8
  store ptr %0, ptr %3, align 8
  store ptr %1, ptr %4, align 8
  %6 = load ptr, ptr %3, align 8
  %7 = getelementptr inbounds %class.Node, ptr %6, i32 0, i32 2
  %8 = load ptr, ptr %7, align 8
  store ptr %8, ptr %5, align 8
  %9 = load ptr, ptr %5, align 8
  %10 = getelementptr inbounds %class.Node, ptr %6, i32 0, i32 5
  %11 = load i32, ptr %10, align 8
  %12 = zext i32 %11 to i64
  %13 = getelementptr inbounds ptr, ptr %9, i64 %12
  %14 = load ptr, ptr %4, align 8
  store ptr %13, ptr %14, align 8
  %15 = load ptr, ptr %5, align 8
  ret ptr %15
}

; Function Attrs: mustprogress nounwind uwtable
define linkonce_odr hidden noundef ptr @_ZNK4Node2inEj(ptr noundef nonnull align 8 dereferenceable(52) %0, i32 noundef %1) #1 comdat align 2 {
  %3 = alloca ptr, align 8
  %4 = alloca i32, align 4
  store ptr %0, ptr %3, align 8
  store i32 %1, ptr %4, align 4
  %5 = load ptr, ptr %3, align 8
  %6 = getelementptr inbounds %class.Node, ptr %5, i32 0, i32 1
  %7 = load ptr, ptr %6, align 8
  %8 = load i32, ptr %4, align 4
  %9 = zext i32 %8 to i64
  %10 = getelementptr inbounds ptr, ptr %7, i64 %9
  %11 = load ptr, ptr %10, align 8
  ret ptr %11
}

; Function Attrs: mustprogress nounwind uwtable
define linkonce_odr hidden noundef zeroext i1 @_ZNK4Node15is_SubTypeCheckEv(ptr noundef nonnull align 8 dereferenceable(52) %0) #1 comdat align 2 {
  %2 = alloca ptr, align 8
  store ptr %0, ptr %2, align 8
  %3 = load ptr, ptr %2, align 8
  %4 = getelementptr inbounds %class.Node, ptr %3, i32 0, i32 8
  %5 = load i32, ptr %4, align 4
  %6 = and i32 %5, 2047
  %7 = icmp eq i32 %6, 1216
  ret i1 %7
}

; Function Attrs: mustprogress nounwind uwtable
define hidden noundef ptr @_ZN14PhaseIdealLoop21similar_subtype_checkEPK4NodePS0_(ptr noundef nonnull align 8 dereferenceable(237) %0, ptr noundef %1, ptr noundef %2) #1 align 2 {
  %4 = alloca ptr, align 8
  %5 = alloca ptr, align 8
  %6 = alloca ptr, align 8
  %7 = alloca ptr, align 8
  %8 = alloca ptr, align 8
  %9 = alloca ptr, align 8
  %10 = alloca ptr, align 8
  %11 = alloca ptr, align 8
  %12 = alloca ptr, align 8
  %13 = alloca ptr, align 8
  %14 = alloca ptr, align 8
  %15 = alloca ptr, align 8
  %16 = alloca ptr, align 8
  %17 = alloca ptr, align 8
  store ptr %0, ptr %5, align 8
  store ptr %1, ptr %6, align 8
  store ptr %2, ptr %7, align 8
  %18 = load ptr, ptr %5, align 8
  %19 = load ptr, ptr %6, align 8
  %20 = call noundef zeroext i1 @_ZNK4Node15is_SubTypeCheckEv(ptr noundef nonnull align 8 dereferenceable(52) %19)
  br i1 %20, label %21, label %98

21:                                               ; preds = %3
  %22 = load ptr, ptr %6, align 8
  %23 = call noundef ptr @_ZNK4Node2inEj(ptr noundef nonnull align 8 dereferenceable(52) %22, i32 noundef 1)
  store ptr %23, ptr %8, align 8
  %24 = load ptr, ptr %8, align 8
  %25 = call noundef ptr @_ZNK4Node9fast_outsERPPS_(ptr noundef nonnull align 8 dereferenceable(52) %24, ptr noundef nonnull align 8 dereferenceable(8) %9)
  store ptr %25, ptr %10, align 8
  br label %26

26:                                               ; preds = %94, %21
  %27 = load ptr, ptr %10, align 8
  %28 = load ptr, ptr %9, align 8
  %29 = icmp ult ptr %27, %28
  br i1 %29, label %30, label %97

30:                                               ; preds = %26
  %31 = load ptr, ptr %8, align 8
  %32 = load ptr, ptr %10, align 8
  %33 = call noundef ptr @_ZNK4Node8fast_outEPPS_(ptr noundef nonnull align 8 dereferenceable(52) %31, ptr noundef %32)
  store ptr %33, ptr %11, align 8
  %34 = load ptr, ptr %11, align 8
  %35 = load ptr, ptr %6, align 8
  %36 = icmp ne ptr %34, %35
  br i1 %36, label %37, label %93

37:                                               ; preds = %30
  %38 = load ptr, ptr %11, align 8
  %39 = call noundef zeroext i1 @_ZNK4Node15is_SubTypeCheckEv(ptr noundef nonnull align 8 dereferenceable(52) %38)
  br i1 %39, label %40, label %93

40:                                               ; preds = %37
  %41 = load ptr, ptr %11, align 8
  %42 = call noundef ptr @_ZNK4Node2inEj(ptr noundef nonnull align 8 dereferenceable(52) %41, i32 noundef 1)
  %43 = load ptr, ptr %6, align 8
  %44 = call noundef ptr @_ZNK4Node2inEj(ptr noundef nonnull align 8 dereferenceable(52) %43, i32 noundef 1)
  %45 = icmp eq ptr %42, %44
  br i1 %45, label %46, label %93

46:                                               ; preds = %40
  %47 = load ptr, ptr %11, align 8
  %48 = call noundef ptr @_ZNK4Node2inEj(ptr noundef nonnull align 8 dereferenceable(52) %47, i32 noundef 2)
  %49 = load ptr, ptr %6, align 8
  %50 = call noundef ptr @_ZNK4Node2inEj(ptr noundef nonnull align 8 dereferenceable(52) %49, i32 noundef 2)
  %51 = icmp eq ptr %48, %50
  br i1 %51, label %52, label %93

52:                                               ; preds = %46
  %53 = load ptr, ptr %11, align 8
  %54 = call noundef ptr @_ZNK4Node9fast_outsERPPS_(ptr noundef nonnull align 8 dereferenceable(52) %53, ptr noundef nonnull align 8 dereferenceable(8) %12)
  store ptr %54, ptr %13, align 8
  br label %55

55:                                               ; preds = %89, %52
  %56 = load ptr, ptr %13, align 8
  %57 = load ptr, ptr %12, align 8
  %58 = icmp ult ptr %56, %57
  br i1 %58, label %59, label %92

59:                                               ; preds = %55
  %60 = load ptr, ptr %11, align 8
  %61 = load ptr, ptr %13, align 8
  %62 = call noundef ptr @_ZNK4Node8fast_outEPPS_(ptr noundef nonnull align 8 dereferenceable(52) %60, ptr noundef %61)
  store ptr %62, ptr %14, align 8
  %63 = load ptr, ptr %14, align 8
  %64 = call noundef ptr @_ZNK4Node9fast_outsERPPS_(ptr noundef nonnull align 8 dereferenceable(52) %63, ptr noundef nonnull align 8 dereferenceable(8) %15)
  store ptr %64, ptr %16, align 8
  br label %65

65:                                               ; preds = %85, %59
  %66 = load ptr, ptr %16, align 8
  %67 = load ptr, ptr %15, align 8
  %68 = icmp ult ptr %66, %67
  br i1 %68, label %69, label %88

69:                                               ; preds = %65
  %70 = load ptr, ptr %14, align 8
  %71 = load ptr, ptr %16, align 8
  %72 = call noundef ptr @_ZNK4Node8fast_outEPPS_(ptr noundef nonnull align 8 dereferenceable(52) %70, ptr noundef %71)
  store ptr %72, ptr %17, align 8
  %73 = load ptr, ptr %17, align 8
  %74 = call noundef zeroext i1 @_ZNK4Node5is_IfEv(ptr noundef nonnull align 8 dereferenceable(52) %73)
  br i1 %74, label %75, label %84

75:                                               ; preds = %69
  %76 = load ptr, ptr %17, align 8
  %77 = load ptr, ptr %7, align 8
  %78 = load ptr, ptr %18, align 8
  %79 = getelementptr inbounds ptr, ptr %78, i64 1
  %80 = load ptr, ptr %79, align 8
  %81 = call noundef zeroext i1 %80(ptr noundef nonnull align 8 dereferenceable(237) %18, ptr noundef %76, ptr noundef %77)
  br i1 %81, label %82, label %84

82:                                               ; preds = %75
  %83 = load ptr, ptr %11, align 8
  store ptr %83, ptr %4, align 8
  br label %99

84:                                               ; preds = %75, %69
  br label %85

85:                                               ; preds = %84
  %86 = load ptr, ptr %16, align 8
  %87 = getelementptr inbounds ptr, ptr %86, i32 1
  store ptr %87, ptr %16, align 8
  br label %65, !llvm.loop !10

88:                                               ; preds = %65
  br label %89

89:                                               ; preds = %88
  %90 = load ptr, ptr %13, align 8
  %91 = getelementptr inbounds ptr, ptr %90, i32 1
  store ptr %91, ptr %13, align 8
  br label %55, !llvm.loop !11

92:                                               ; preds = %55
  br label %93

93:                                               ; preds = %92, %46, %40, %37, %30
  br label %94

94:                                               ; preds = %93
  %95 = load ptr, ptr %10, align 8
  %96 = getelementptr inbounds ptr, ptr %95, i32 1
  store ptr %96, ptr %10, align 8
  br label %26, !llvm.loop !12

97:                                               ; preds = %26
  br label %98

98:                                               ; preds = %97, %3
  store ptr null, ptr %4, align 8
  br label %99

99:                                               ; preds = %98, %82
  %100 = load ptr, ptr %4, align 8
  ret ptr %100
}