; Function Attrs: mustprogress nounwind uwtable
define hidden noundef ptr @_ZN14PhaseIdealLoop21similar_subtype_checkEPK4NodePS0_(ptr noundef nonnull align 8 dereferenceable(237) %0, ptr noundef readonly %1, ptr noundef %2) local_unnamed_addr #0 align 2 {
  %4 = getelementptr inbounds i8, ptr %1, i64 44
  %5 = load i32, ptr %4, align 4
  %6 = and i32 %5, 2047
  %7 = icmp eq i32 %6, 1216
  br i1 %7, label %8, label %.loopexit

8:                                                ; preds = %3
  %9 = getelementptr inbounds i8, ptr %1, i64 8
  %10 = load ptr, ptr %9, align 8
  %11 = getelementptr inbounds i8, ptr %10, i64 8
  %12 = load ptr, ptr %11, align 8
  %13 = getelementptr inbounds i8, ptr %12, i64 16
  %14 = load ptr, ptr %13, align 8
  %15 = getelementptr inbounds i8, ptr %12, i64 32
  %16 = load i32, ptr %15, align 8
  %17 = zext i32 %16 to i64
  %18 = getelementptr inbounds ptr, ptr %14, i64 %17
  %.not46 = icmp eq i32 %16, 0
  br i1 %.not46, label %.loopexit, label %.lr.ph45

.lr.ph45:                                         ; preds = %8, %.loopexit37
  %.03143 = phi ptr [ %69, %.loopexit37 ], [ %14, %8 ]
  %19 = load ptr, ptr %.03143, align 8
  %.not = icmp eq ptr %19, %1
  br i1 %.not, label %.loopexit37, label %20

20:                                               ; preds = %.lr.ph45
  %21 = getelementptr inbounds i8, ptr %19, i64 44
  %22 = load i32, ptr %21, align 4
  %23 = and i32 %22, 2047
  %24 = icmp eq i32 %23, 1216
  br i1 %24, label %25, label %.loopexit37

25:                                               ; preds = %20
  %26 = getelementptr inbounds i8, ptr %19, i64 8
  %27 = load ptr, ptr %26, align 8
  %28 = getelementptr inbounds i8, ptr %27, i64 8
  %29 = load ptr, ptr %28, align 8
  %30 = load ptr, ptr %9, align 8
  %31 = getelementptr inbounds i8, ptr %30, i64 8
  %32 = load ptr, ptr %31, align 8
  %33 = icmp eq ptr %29, %32
  br i1 %33, label %34, label %.loopexit37

34:                                               ; preds = %25
  %35 = getelementptr inbounds i8, ptr %27, i64 16
  %36 = load ptr, ptr %35, align 8
  %37 = getelementptr inbounds i8, ptr %30, i64 16
  %38 = load ptr, ptr %37, align 8
  %39 = icmp eq ptr %36, %38
  br i1 %39, label %40, label %.loopexit37

40:                                               ; preds = %34
  %41 = getelementptr inbounds i8, ptr %19, i64 16
  %42 = load ptr, ptr %41, align 8
  %43 = getelementptr inbounds i8, ptr %19, i64 32
  %44 = load i32, ptr %43, align 8
  %45 = zext i32 %44 to i64
  %46 = getelementptr inbounds ptr, ptr %42, i64 %45
  %.not47 = icmp eq i32 %44, 0
  br i1 %.not47, label %.loopexit37, label %.lr.ph42

.lr.ph42:                                         ; preds = %40, %._crit_edge
  %.03240 = phi ptr [ %67, %._crit_edge ], [ %42, %40 ]
  %47 = load ptr, ptr %.03240, align 8
  %48 = getelementptr inbounds i8, ptr %47, i64 16
  %49 = load ptr, ptr %48, align 8
  %50 = getelementptr inbounds i8, ptr %47, i64 32
  %51 = load i32, ptr %50, align 8
  %52 = zext i32 %51 to i64
  %53 = getelementptr inbounds ptr, ptr %49, i64 %52
  %.not48 = icmp eq i32 %51, 0
  br i1 %.not48, label %._crit_edge, label %.lr.ph

.lr.ph:                                           ; preds = %.lr.ph42, %64
  %.03039 = phi ptr [ %65, %64 ], [ %49, %.lr.ph42 ]
  %54 = load ptr, ptr %.03039, align 8
  %55 = getelementptr inbounds i8, ptr %54, i64 44
  %56 = load i32, ptr %55, align 4
  %57 = and i32 %56, 31
  %58 = icmp eq i32 %57, 21
  br i1 %58, label %59, label %64

59:                                               ; preds = %.lr.ph
  %60 = load ptr, ptr %0, align 8
  %61 = getelementptr inbounds i8, ptr %60, i64 8
  %62 = load ptr, ptr %61, align 8
  %63 = tail call noundef zeroext i1 %62(ptr noundef nonnull align 8 dereferenceable(237) %0, ptr noundef nonnull %54, ptr noundef %2) #9
  br i1 %63, label %.loopexit, label %64

64:                                               ; preds = %.lr.ph, %59
  %65 = getelementptr inbounds i8, ptr %.03039, i64 8
  %66 = icmp ult ptr %65, %53
  br i1 %66, label %.lr.ph, label %._crit_edge, !llvm.loop !9

._crit_edge:                                      ; preds = %64, %.lr.ph42
  %67 = getelementptr inbounds i8, ptr %.03240, i64 8
  %68 = icmp ult ptr %67, %46
  br i1 %68, label %.lr.ph42, label %.loopexit37, !llvm.loop !10

.loopexit37:                                      ; preds = %._crit_edge, %40, %.lr.ph45, %20, %25, %34
  %69 = getelementptr inbounds i8, ptr %.03143, i64 8
  %70 = icmp ult ptr %69, %18
  br i1 %70, label %.lr.ph45, label %.loopexit, !llvm.loop !11

.loopexit:                                        ; preds = %.loopexit37, %59, %8, %3
  %.0 = phi ptr [ null, %3 ], [ null, %8 ], [ %19, %59 ], [ null, %.loopexit37 ]
  ret ptr %.0
}